target datalayout = "e-m:e-p270:32:32-p271:32:32-p272:64:64-i64:64-i128:128-f80:128-n8:16:32:64-S128"
target triple = "x86_64-unknown-linux-gnu"

%"class.node::MutexBase" = type { %union.pthread_mutex_t }
%union.pthread_mutex_t = type { %struct.__pthread_mutex_s }
%struct.__pthread_mutex_s = type { i32, i32, i32, i32, i32, i16, i16, %struct.__pthread_internal_list }
%struct.__pthread_internal_list = type { ptr, ptr }
%"struct.std::__detail::_Hash_node_base" = type { ptr }
%"struct.std::__detail::_Prime_rehash_policy" = type { float, i64 }
%"class.v8::IndirectHandleBase" = type { ptr }
%"class.node::MemoryRetainer" = type { ptr }
%"class.std::__shared_count" = type { ptr }
%"class.node::Environment" = type { %"class.node::MemoryRetainer", %"class.std::unordered_multimap", %"class.std::__cxx11::list", ptr, ptr, %struct.uv_timer_s, %struct.uv_check_s, %struct.uv_idle_s, %struct.uv_prepare_s, %struct.uv_check_s, %struct.uv_async_s, i64, %"struct.std::atomic", %"struct.std::atomic", %"class.node::AsyncHooks", %"class.node::ImmediateInfo", %"class.node::AliasedBufferBase.42", %"class.node::TickInfo", %"class.node::permission::Permission", i64, %"class.std::shared_ptr", i8, i8, i8, i8, i8, i8, i64, %"class.std::vector.67", %"class.std::unordered_set", %"class.std::unique_ptr.91", %"class.std::unique_ptr.99", %"class.std::__cxx11::basic_string", %"class.std::__cxx11::basic_string", %"class.std::__cxx11::basic_string", i64, %"class.std::unique_ptr.111", %"class.std::__cxx11::basic_string", %"class.std::__cxx11::basic_string", i64, %"class.std::shared_ptr.119", %"class.std::shared_ptr.122", %"class.std::vector.125", %"class.std::vector.125", %"class.std::__cxx11::basic_string", i8, i32, i32, i8, i32, i32, i32, i32, %"class.node::AliasedBufferBase.42", %"class.node::AliasedBufferBase.30", i32, %"class.std::unique_ptr.130", %"class.node::AliasedBufferBase.42", i64, double, i64, %"class.std::unique_ptr.138", i8, i64, i64, %"class.std::unordered_set.146", %"class.std::unique_ptr.166", i8, %"class.std::__cxx11::list.174", %"class.node::ListHead", %"class.node::ListHead.179", %"class.std::__cxx11::list.181", i32, i32, %"class.node::EnabledDebugList", %"class.std::vector.186", %"class.std::__cxx11::list.191", %"class.node::MutexBase", %"class.std::__cxx11::list.196", %"class.node::CallbackQueue", %"class.node::MutexBase", %"class.node::CallbackQueue", %"class.node::CallbackQueue", i8, %"struct.std::atomic.211", %"class.node::CleanupQueue", i8, %"class.std::unordered_set.229", %"class.std::function", %"class.std::unique_ptr.244", %"class.node::builtins::BuiltinLoader", %"class.std::function.258", %"class.std::unordered_map.260" }
%"class.std::unordered_multimap" = type { %"class.std::_Hashtable" }
%"class.std::_Hashtable" = type { ptr, i64, %"struct.std::__detail::_Hash_node_base", i64, %"struct.std::__detail::_Prime_rehash_policy", ptr }
%"class.std::__cxx11::list" = type { %"class.std::__cxx11::_List_base" }
%"class.std::__cxx11::_List_base" = type { %"struct.std::__cxx11::_List_base<node::binding::DLib, std::allocator<node::binding::DLib>>::_List_impl" }
%"struct.std::__cxx11::_List_base<node::binding::DLib, std::allocator<node::binding::DLib>>::_List_impl" = type { %"struct.std::__detail::_List_node_header" }
%"struct.std::__detail::_List_node_header" = type { %"struct.std::__detail::_List_node_base", i64 }
%"struct.std::__detail::_List_node_base" = type { ptr, ptr }
%struct.uv_timer_s = type { ptr, ptr, i32, ptr, %struct.uv__queue, %union.anon, ptr, i32, ptr, [3 x ptr], i64, i64, i64 }
%struct.uv__queue = type { ptr, ptr }
%union.anon = type { [4 x ptr] }
%struct.uv_idle_s = type { ptr, ptr, i32, ptr, %struct.uv__queue, %union.anon.27, ptr, i32, ptr, %struct.uv__queue }
%union.anon.27 = type { [4 x ptr] }
%struct.uv_prepare_s = type { ptr, ptr, i32, ptr, %struct.uv__queue, %union.anon.28, ptr, i32, ptr, %struct.uv__queue }
%union.anon.28 = type { [4 x ptr] }
%struct.uv_check_s = type { ptr, ptr, i32, ptr, %struct.uv__queue, %union.anon.26, ptr, i32, ptr, %struct.uv__queue }
%union.anon.26 = type { [4 x ptr] }
%struct.uv_async_s = type { ptr, ptr, i32, ptr, %struct.uv__queue, %union.anon.29, ptr, i32, ptr, %struct.uv__queue, i32 }
%union.anon.29 = type { [4 x ptr] }
%"struct.std::atomic" = type { %"struct.std::__atomic_base" }
%"struct.std::__atomic_base" = type { i8 }
%"class.node::AsyncHooks" = type { %"class.node::MemoryRetainer", %"class.node::AliasedBufferBase", %"class.node::AliasedBufferBase.30", %"class.node::AliasedBufferBase", %"class.v8::Global.33", %"class.std::vector.35", ptr, %"struct.std::array" }
%"class.node::AliasedBufferBase" = type { %"class.node::MemoryRetainer", ptr, i64, i64, ptr, %"class.v8::Global", ptr }
%"class.v8::Global" = type { %"class.v8::PersistentBase" }
%"class.v8::PersistentBase" = type { %"class.v8::IndirectHandleBase" }
%"class.v8::Global.33" = type { %"class.v8::PersistentBase.34" }
%"class.v8::PersistentBase.34" = type { %"class.v8::IndirectHandleBase" }
%"class.std::vector.35" = type { %"struct.std::_Vector_base.36" }
%"struct.std::_Vector_base.36" = type { %"struct.std::_Vector_base<v8::Local<v8::Object>, std::allocator<v8::Local<v8::Object>>>::_Vector_impl" }
%"struct.std::_Vector_base<v8::Local<v8::Object>, std::allocator<v8::Local<v8::Object>>>::_Vector_impl" = type { %"struct.std::_Vector_base<v8::Local<v8::Object>, std::allocator<v8::Local<v8::Object>>>::_Vector_impl_data" }
%"struct.std::_Vector_base<v8::Local<v8::Object>, std::allocator<v8::Local<v8::Object>>>::_Vector_impl_data" = type { ptr, ptr, ptr }
%"struct.std::array" = type { [4 x %"class.v8::Global.40"] }
%"class.v8::Global.40" = type { %"class.v8::PersistentBase.41" }
%"class.v8::PersistentBase.41" = type { %"class.v8::IndirectHandleBase" }
%"class.node::ImmediateInfo" = type { %"class.node::MemoryRetainer", %"class.node::AliasedBufferBase.30" }
%"class.node::TickInfo" = type { %"class.node::MemoryRetainer", %"class.node::AliasedBufferBase.45" }
%"class.node::AliasedBufferBase.45" = type { %"class.node::MemoryRetainer", ptr, i64, i64, ptr, %"class.v8::Global.46", ptr }
%"class.v8::Global.46" = type { %"class.v8::PersistentBase.47" }
%"class.v8::PersistentBase.47" = type { %"class.v8::IndirectHandleBase" }
%"class.node::permission::Permission" = type <{ %"class.std::unordered_map", i8, [7 x i8] }>
%"class.std::unordered_map" = type { %"class.std::_Hashtable.48" }
%"class.std::_Hashtable.48" = type { ptr, i64, %"struct.std::__detail::_Hash_node_base", i64, %"struct.std::__detail::_Prime_rehash_policy", ptr }
%"class.std::shared_ptr" = type { %"class.std::__shared_ptr" }
%"class.std::__shared_ptr" = type { ptr, %"class.std::__shared_count" }
%"class.std::vector.67" = type { %"struct.std::_Vector_base.68" }
%"struct.std::_Vector_base.68" = type { %"struct.std::_Vector_base<double, std::allocator<double>>::_Vector_impl" }
%"struct.std::_Vector_base<double, std::allocator<double>>::_Vector_impl" = type { %"struct.std::_Vector_base<double, std::allocator<double>>::_Vector_impl_data" }
%"struct.std::_Vector_base<double, std::allocator<double>>::_Vector_impl_data" = type { ptr, ptr, ptr }
%"class.std::unordered_set" = type { %"class.std::_Hashtable.72" }
%"class.std::_Hashtable.72" = type { ptr, i64, %"struct.std::__detail::_Hash_node_base", i64, %"struct.std::__detail::_Prime_rehash_policy", ptr }
%"class.std::unique_ptr.91" = type { %"struct.std::__uniq_ptr_data.92" }
%"struct.std::__uniq_ptr_data.92" = type { %"class.std::__uniq_ptr_impl.93" }
%"class.std::__uniq_ptr_impl.93" = type { %"class.std::tuple.94" }
%"class.std::tuple.94" = type { %"struct.std::_Tuple_impl.95" }
%"struct.std::_Tuple_impl.95" = type { %"struct.std::_Head_base.98" }
%"struct.std::_Head_base.98" = type { ptr }
%"class.std::unique_ptr.99" = type { %"struct.std::__uniq_ptr_data.100" }
%"struct.std::__uniq_ptr_data.100" = type { %"class.std::__uniq_ptr_impl.101" }
%"class.std::__uniq_ptr_impl.101" = type { %"class.std::tuple.102" }
%"class.std::tuple.102" = type { %"struct.std::_Tuple_impl.103" }
%"struct.std::_Tuple_impl.103" = type { %"struct.std::_Head_base.106" }
%"struct.std::_Head_base.106" = type { ptr }
%"class.std::unique_ptr.111" = type { %"struct.std::__uniq_ptr_data.112" }
%"struct.std::__uniq_ptr_data.112" = type { %"class.std::__uniq_ptr_impl.113" }
%"class.std::__uniq_ptr_impl.113" = type { %"class.std::tuple.114" }
%"class.std::tuple.114" = type { %"struct.std::_Tuple_impl.115" }
%"struct.std::_Tuple_impl.115" = type { %"struct.std::_Head_base.118" }
%"struct.std::_Head_base.118" = type { ptr }
%"class.std::shared_ptr.119" = type { %"class.std::__shared_ptr.120" }
%"class.std::__shared_ptr.120" = type { ptr, %"class.std::__shared_count" }
%"class.std::shared_ptr.122" = type { %"class.std::__shared_ptr.123" }
%"class.std::__shared_ptr.123" = type { ptr, %"class.std::__shared_count" }
%"class.std::vector.125" = type { %"struct.std::_Vector_base.126" }
%"struct.std::_Vector_base.126" = type { %"struct.std::_Vector_base<std::__cxx11::basic_string<char>, std::allocator<std::__cxx11::basic_string<char>>>::_Vector_impl" }
%"struct.std::_Vector_base<std::__cxx11::basic_string<char>, std::allocator<std::__cxx11::basic_string<char>>>::_Vector_impl" = type { %"struct.std::_Vector_base<std::__cxx11::basic_string<char>, std::allocator<std::__cxx11::basic_string<char>>>::_Vector_impl_data" }
%"struct.std::_Vector_base<std::__cxx11::basic_string<char>, std::allocator<std::__cxx11::basic_string<char>>>::_Vector_impl_data" = type { ptr, ptr, ptr }
%"class.std::__cxx11::basic_string" = type { %"struct.std::__cxx11::basic_string<char>::_Alloc_hider", i64, %union.anon.110 }
%"struct.std::__cxx11::basic_string<char>::_Alloc_hider" = type { ptr }
%union.anon.110 = type { i64, [8 x i8] }
%"class.node::AliasedBufferBase.30" = type { %"class.node::MemoryRetainer", ptr, i64, i64, ptr, %"class.v8::Global.31", ptr }
%"class.v8::Global.31" = type { %"class.v8::PersistentBase.32" }
%"class.v8::PersistentBase.32" = type { %"class.v8::IndirectHandleBase" }
%"class.std::unique_ptr.130" = type { %"struct.std::__uniq_ptr_data.131" }
%"struct.std::__uniq_ptr_data.131" = type { %"class.std::__uniq_ptr_impl.132" }
%"class.std::__uniq_ptr_impl.132" = type { %"class.std::tuple.133" }
%"class.std::tuple.133" = type { %"struct.std::_Tuple_impl.134" }
%"struct.std::_Tuple_impl.134" = type { %"struct.std::_Head_base.137" }
%"struct.std::_Head_base.137" = type { ptr }
%"class.node::AliasedBufferBase.42" = type { %"class.node::MemoryRetainer", ptr, i64, i64, ptr, %"class.v8::Global.43", ptr }
%"class.v8::Global.43" = type { %"class.v8::PersistentBase.44" }
%"class.v8::PersistentBase.44" = type { %"class.v8::IndirectHandleBase" }
%"class.std::unique_ptr.138" = type { %"struct.std::__uniq_ptr_data.139" }
%"struct.std::__uniq_ptr_data.139" = type { %"class.std::__uniq_ptr_impl.140" }
%"class.std::__uniq_ptr_impl.140" = type { %"class.std::tuple.141" }
%"class.std::tuple.141" = type { %"struct.std::_Tuple_impl.142" }
%"struct.std::_Tuple_impl.142" = type { %"struct.std::_Head_base.145" }
%"struct.std::_Head_base.145" = type { ptr }
%"class.std::unordered_set.146" = type { %"class.std::_Hashtable.147" }
%"class.std::_Hashtable.147" = type { ptr, i64, %"struct.std::__detail::_Hash_node_base", i64, %"struct.std::__detail::_Prime_rehash_policy", ptr }
%"class.std::unique_ptr.166" = type { %"struct.std::__uniq_ptr_data.167" }
%"struct.std::__uniq_ptr_data.167" = type { %"class.std::__uniq_ptr_impl.168" }
%"class.std::__uniq_ptr_impl.168" = type { %"class.std::tuple.169" }
%"class.std::tuple.169" = type { %"struct.std::_Tuple_impl.170" }
%"struct.std::_Tuple_impl.170" = type { %"struct.std::_Head_base.173" }
%"struct.std::_Head_base.173" = type { ptr }
%"class.std::__cxx11::list.174" = type { %"class.std::__cxx11::_List_base.175" }
%"class.std::__cxx11::_List_base.175" = type { %"struct.std::__cxx11::_List_base<node::DeserializeRequest, std::allocator<node::DeserializeRequest>>::_List_impl" }
%"struct.std::__cxx11::_List_base<node::DeserializeRequest, std::allocator<node::DeserializeRequest>>::_List_impl" = type { %"struct.std::__detail::_List_node_header" }
%"class.node::ListHead" = type { %"class.node::ListNode" }
%"class.node::ListNode" = type { ptr, ptr }
%"class.node::ListHead.179" = type { %"class.node::ListNode.180" }
%"class.node::ListNode.180" = type { ptr, ptr }
%"class.std::__cxx11::list.181" = type { %"class.std::__cxx11::_List_base.182" }
%"class.std::__cxx11::_List_base.182" = type { %"struct.std::__cxx11::_List_base<node::Environment::HandleCleanup, std::allocator<node::Environment::HandleCleanup>>::_List_impl" }
%"struct.std::__cxx11::_List_base<node::Environment::HandleCleanup, std::allocator<node::Environment::HandleCleanup>>::_List_impl" = type { %"struct.std::__detail::_List_node_header" }
%"class.node::EnabledDebugList" = type { [75 x i8] }
%"class.std::vector.186" = type { %"struct.std::_Vector_base.187" }
%"struct.std::_Vector_base.187" = type { %"struct.std::_Vector_base<v8::Global<v8::Context>, std::allocator<v8::Global<v8::Context>>>::_Vector_impl" }
%"struct.std::_Vector_base<v8::Global<v8::Context>, std::allocator<v8::Global<v8::Context>>>::_Vector_impl" = type { %"struct.std::_Vector_base<v8::Global<v8::Context>, std::allocator<v8::Global<v8::Context>>>::_Vector_impl_data" }
%"struct.std::_Vector_base<v8::Global<v8::Context>, std::allocator<v8::Global<v8::Context>>>::_Vector_impl_data" = type { ptr, ptr, ptr }
%"class.std::__cxx11::list.191" = type { %"class.std::__cxx11::_List_base.192" }
%"class.std::__cxx11::_List_base.192" = type { %"struct.std::__cxx11::_List_base<node::node_module, std::allocator<node::node_module>>::_List_impl" }
%"struct.std::__cxx11::_List_base<node::node_module, std::allocator<node::node_module>>::_List_impl" = type { %"struct.std::__detail::_List_node_header" }
%"class.std::__cxx11::list.196" = type { %"class.std::__cxx11::_List_base.197" }
%"class.std::__cxx11::_List_base.197" = type { %"struct.std::__cxx11::_List_base<node::Environment::ExitCallback, std::allocator<node::Environment::ExitCallback>>::_List_impl" }
%"struct.std::__cxx11::_List_base<node::Environment::ExitCallback, std::allocator<node::Environment::ExitCallback>>::_List_impl" = type { %"struct.std::__detail::_List_node_header" }
%"class.node::CallbackQueue" = type { %"struct.std::atomic.201", %"class.std::unique_ptr.203", ptr }
%"struct.std::atomic.201" = type { %"struct.std::__atomic_base.202" }
%"struct.std::__atomic_base.202" = type { i64 }
%"class.std::unique_ptr.203" = type { %"struct.std::__uniq_ptr_data.204" }
%"struct.std::__uniq_ptr_data.204" = type { %"class.std::__uniq_ptr_impl.205" }
%"class.std::__uniq_ptr_impl.205" = type { %"class.std::tuple.206" }
%"class.std::tuple.206" = type { %"struct.std::_Tuple_impl.207" }
%"struct.std::_Tuple_impl.207" = type { %"struct.std::_Head_base.210" }
%"struct.std::_Head_base.210" = type { ptr }
%"struct.std::atomic.211" = type { %"struct.std::__atomic_base.212" }
%"struct.std::__atomic_base.212" = type { ptr }
%"class.node::CleanupQueue" = type { %"class.node::MemoryRetainer", %"class.std::unordered_set.213", i64 }
%"class.std::unordered_set.213" = type { %"class.std::_Hashtable.214" }
%"class.std::_Hashtable.214" = type { ptr, i64, %"struct.std::__detail::_Hash_node_base", i64, %"struct.std::__detail::_Prime_rehash_policy", ptr }
%"class.std::unordered_set.229" = type { %"class.std::_Hashtable.230" }
%"class.std::_Hashtable.230" = type { ptr, i64, %"struct.std::__detail::_Hash_node_base", i64, %"struct.std::__detail::_Prime_rehash_policy", ptr }
%"class.std::function" = type { %"class.std::_Function_base", ptr }
%"class.std::_Function_base" = type { %"union.std::_Any_data", ptr }
%"union.std::_Any_data" = type { %"union.std::_Nocopy_types" }
%"union.std::_Nocopy_types" = type { { i64, i64 } }
%"class.std::unique_ptr.244" = type { %"struct.std::__uniq_ptr_data.245" }
%"struct.std::__uniq_ptr_data.245" = type { %"class.std::__uniq_ptr_impl.246" }
%"class.std::__uniq_ptr_impl.246" = type { %"class.std::tuple.247" }
%"class.std::tuple.247" = type { %"struct.std::_Tuple_impl.248" }
%"struct.std::_Tuple_impl.248" = type { %"struct.std::_Head_base.251" }
%"struct.std::_Head_base.251" = type { ptr }
%"class.node::builtins::BuiltinLoader" = type { %"class.node::ThreadsafeCopyOnWrite", %"class.node::UnionBytes", %"class.std::shared_ptr.255" }
%"class.node::ThreadsafeCopyOnWrite" = type { %"class.node::CopyOnWrite" }
%"class.node::CopyOnWrite" = type { %"class.std::shared_ptr.252" }
%"class.std::shared_ptr.252" = type { %"class.std::__shared_ptr.253" }
%"class.std::__shared_ptr.253" = type { ptr, %"class.std::__shared_count" }
%"class.node::UnionBytes" = type { ptr, ptr }
%"class.std::shared_ptr.255" = type { %"class.std::__shared_ptr.256" }
%"class.std::__shared_ptr.256" = type { ptr, %"class.std::__shared_count" }
%"class.std::function.258" = type { %"class.std::_Function_base", ptr }
%"class.std::unordered_map.260" = type { %"class.std::_Hashtable.261" }
%"class.std::_Hashtable.261" = type { ptr, i64, %"struct.std::__detail::_Hash_node_base", i64, %"struct.std::__detail::_Prime_rehash_policy", ptr }
%"class.node::BaseObject" = type { %"class.node::MemoryRetainer", %"class.v8::Global.296", ptr, ptr }
%"class.v8::Global.296" = type { %"class.v8::PersistentBase.297" }
%"class.v8::PersistentBase.297" = type { %"class.v8::IndirectHandleBase" }
%"class.node::worker::MessagePort" = type { %"class.node::HandleWrap", %"class.std::unique_ptr.332", i8, %struct.uv_async_s, %"class.v8::Global.40" }
%"class.node::HandleWrap" = type { %"class.node::AsyncWrap", i32, %"class.node::ListNode", ptr }
%"class.node::AsyncWrap" = type { %"class.node::BaseObject", i32, i8, double, double }
%"class.std::unique_ptr.332" = type { %"struct.std::__uniq_ptr_data.333" }
%"struct.std::__uniq_ptr_data.333" = type { %"class.std::__uniq_ptr_impl.334" }
%"class.std::__uniq_ptr_impl.334" = type { %"class.std::tuple.335" }
%"class.std::tuple.335" = type { %"struct.std::_Tuple_impl.336" }
%"struct.std::_Tuple_impl.336" = type { %"struct.std::_Head_base.339" }
%"struct.std::_Head_base.339" = type { ptr }
%"struct.std::_Rb_tree_header" = type { %"struct.std::_Rb_tree_node_base", i64 }
%"struct.std::_Rb_tree_node_base" = type { i32, ptr, ptr, ptr }
%"class.v8::Global.397" = type { %"class.v8::PersistentBase.398" }
%"class.v8::PersistentBase.398" = type { %"class.v8::IndirectHandleBase" }
%"class.node::Realm" = type { %"class.node::MemoryRetainer", %"class.std::set.510", %"class.std::set.518", %"class.std::set.518", %"class.std::vector.125", ptr, ptr, %"class.v8::Global.397", %"class.v8::Global.40", %"class.v8::Global.40", %"class.v8::Global.40", %"class.v8::Global.296", %"class.v8::Global.40", %"class.v8::Global.40", %"class.v8::Global.40", %"class.v8::Global.296", %"class.v8::Global.40", %"class.v8::Global.40", %"class.v8::Global.40", %"class.v8::Global.40", %"class.v8::Global.40", %"class.v8::Global.40", %"class.v8::Global.40", %"class.v8::Global.40", %"class.v8::Global.40", %"class.v8::Global.40", %"class.v8::Global.40", %"class.v8::Global.40", %"class.v8::Global.40", %"class.v8::Global.40", %"class.v8::Global.40", %"class.v8::Global.40", %"class.v8::Global.40", %"class.v8::Global.40", %"class.v8::Global.40", %"class.v8::Global.40", %"class.v8::Global.40", %"class.v8::Global.40", %"class.v8::Global.40", %"class.v8::Global.40", %"class.v8::Global.40", %"class.v8::Global.40", %"class.v8::Global.40", %"class.v8::Global.40", %"class.v8::Global.296", %"class.v8::Global.40", %"class.v8::Global.40", %"class.v8::Global.40", %"class.v8::Global.296", %"class.v8::Global.296", %"class.v8::Global.296", %"class.v8::Global.296", %"class.v8::Global.296", %"class.v8::Global.296", %"class.v8::Global.40", %"class.v8::Global.40", %"class.v8::Global.40", %"class.v8::Global.40", %"class.v8::Global.40", %"class.v8::Global.40", %"class.v8::Global.40", %"class.v8::Global.40", %"class.v8::Global.40", %"class.v8::Global.40", %"class.v8::Global.40", %"class.v8::Global.40", %"class.v8::Global.40", %"class.v8::Global.40", i32, i8, i64, i64, %"struct.std::array.525", %"class.node::CleanupQueue" }
%"class.std::set.510" = type { %"class.std::_Rb_tree.511" }
%"class.std::_Rb_tree.511" = type { %"struct.std::_Rb_tree<node::node_module *, node::node_module *, std::_Identity<node::node_module *>, std::less<node::node_module *>>::_Rb_tree_impl" }
%"struct.std::_Rb_tree<node::node_module *, node::node_module *, std::_Identity<node::node_module *>, std::less<node::node_module *>>::_Rb_tree_impl" = type { %"struct.std::_Rb_tree_key_compare.515", %"struct.std::_Rb_tree_header" }
%"struct.std::_Rb_tree_key_compare.515" = type { %"struct.std::less.516" }
%"struct.std::less.516" = type { i8 }
%"class.std::set.518" = type { %"class.std::_Rb_tree.519" }
%"class.std::_Rb_tree.519" = type { %"struct.std::_Rb_tree<std::__cxx11::basic_string<char>, std::__cxx11::basic_string<char>, std::_Identity<std::__cxx11::basic_string<char>>, std::less<std::__cxx11::basic_string<char>>>::_Rb_tree_impl" }
%"struct.std::_Rb_tree<std::__cxx11::basic_string<char>, std::__cxx11::basic_string<char>, std::_Identity<std::__cxx11::basic_string<char>>, std::less<std::__cxx11::basic_string<char>>>::_Rb_tree_impl" = type { %"struct.std::_Rb_tree_key_compare.523", %"struct.std::_Rb_tree_header" }
%"struct.std::_Rb_tree_key_compare.523" = type { %"struct.std::less.524" }
%"struct.std::less.524" = type { i8 }
%"struct.std::array.525" = type { [12 x %"class.node::BaseObjectPtrImpl.526"] }
%"class.node::BaseObjectPtrImpl.526" = type { %union.anon.527 }
%union.anon.527 = type { ptr }

@.str.45 = private unnamed_addr constant [24 x i8] c"Stop receiving messages\00", align 1

; Function Attrs: mustprogress nounwind uwtable
define linkonce_odr dso_local noundef ptr @_ZNK4node5Realm3envEv(ptr noundef nonnull align 8 dereferenceable(872) %this) #4 comdat align 2 {
entry:
  %this.addr = alloca ptr, align 8
  store ptr %this, ptr %this.addr, align 8
  %this1 = load ptr, ptr %this.addr, align 8
  %env_ = getelementptr inbounds %"class.node::Realm", ptr %this1, i32 0, i32 5
  %0 = load ptr, ptr %env_, align 8
  ret ptr %0
}

; Function Attrs: mustprogress nounwind uwtable
define linkonce_odr dso_local noundef ptr @_ZN4node11Environment18enabled_debug_listEv(ptr noundef nonnull align 8 dereferenceable(2872) %this) #4 comdat align 2 {
entry:
  %this.addr = alloca ptr, align 8
  store ptr %this, ptr %this.addr, align 8
  %this1 = load ptr, ptr %this.addr, align 8
  %enabled_debug_list_ = getelementptr inbounds %"class.node::Environment", ptr %this1, i32 0, i32 74
  ret ptr %enabled_debug_list_
}

; Function Attrs: mustprogress nounwind uwtable
define linkonce_odr dso_local noundef ptr @_ZNK4node10BaseObject3envEv(ptr noundef nonnull align 8 dereferenceable(32) %this) #4 comdat align 2 {
entry:
  %this.addr = alloca ptr, align 8
  store ptr %this, ptr %this.addr, align 8
  %this1 = load ptr, ptr %this.addr, align 8
  %realm_ = getelementptr inbounds %"class.node::BaseObject", ptr %this1, i32 0, i32 2
  %0 = load ptr, ptr %realm_, align 8
  %call = call noundef ptr @_ZNK4node5Realm3envEv(ptr noundef nonnull align 8 dereferenceable(872) %0)
  ret ptr %call
}

; Function Attrs: mustprogress nounwind uwtable
define linkonce_odr dso_local noundef i32 @_ZNK4node9AsyncWrap13provider_typeEv(ptr noundef nonnull align 8 dereferenceable(56) %this) #4 comdat align 2 {
entry:
  %this.addr = alloca ptr, align 8
  store ptr %this, ptr %this.addr, align 8
  %this1 = load ptr, ptr %this.addr, align 8
  %provider_type_ = getelementptr inbounds %"class.node::AsyncWrap", ptr %this1, i32 0, i32 1
  %0 = load i32, ptr %provider_type_, align 8
  ret i32 %0
}

; Function Attrs: mustprogress nounwind uwtable
define dso_local void @_ZN4node6worker11MessagePort4StopEv(ptr noundef nonnull align 8 dereferenceable(240) %this) #4 align 2 {
entry:
  %this.addr.i = alloca ptr, align 8
  %category.addr.i = alloca i32, align 4
  %async_wrap.addr.i = alloca ptr, align 8
  %format.addr.i = alloca ptr, align 8
  %cat.i = alloca i32, align 4
  %this.addr = alloca ptr, align 8
  store ptr %this, ptr %this.addr, align 8
  %this1 = load ptr, ptr %this.addr, align 8
  store ptr %this1, ptr %async_wrap.addr.i, align 8
  store ptr @.str.45, ptr %format.addr.i, align 8
  %0 = load ptr, ptr %async_wrap.addr.i, align 8
  %call.i = call noundef i32 @_ZNK4node9AsyncWrap13provider_typeEv(ptr noundef nonnull align 8 dereferenceable(56) %0)
  store i32 %call.i, ptr %cat.i, align 4
  %1 = load ptr, ptr %async_wrap.addr.i, align 8
  %call1.i = call noundef ptr @_ZNK4node10BaseObject3envEv(ptr noundef nonnull align 8 dereferenceable(32) %1)
  %call2.i = call noundef ptr @_ZN4node11Environment18enabled_debug_listEv(ptr noundef nonnull align 8 dereferenceable(2872) %call1.i)
  %2 = load i32, ptr %cat.i, align 4
  store ptr %call2.i, ptr %this.addr.i, align 8
  store i32 %2, ptr %category.addr.i, align 4
  %this1.i = load ptr, ptr %this.addr.i, align 8
  %3 = load i32, ptr %category.addr.i, align 4
  %idxprom.i = zext i32 %3 to i64
  %arrayidx.i = getelementptr inbounds [75 x i8], ptr %this1.i, i64 0, i64 %idxprom.i
  %4 = load i8, ptr %arrayidx.i, align 1
  %tobool.i = trunc i8 %4 to i1
  br i1 %tobool.i, label %if.end.i, label %if.then.i

if.then.i:                                        ; preds = %entry
  br label %_ZN4node5DebugIJEEEvPNS_9AsyncWrapEPKcDpOT_.exit

if.end.i:                                         ; preds = %entry
  %5 = load ptr, ptr %async_wrap.addr.i, align 8
  %6 = load ptr, ptr %format.addr.i, align 8
  call void @_ZN4node27UnconditionalAsyncWrapDebugIJEEEvPNS_9AsyncWrapEPKcDpOT_(ptr noundef %5, ptr noundef %6) #18
  br label %_ZN4node5DebugIJEEEvPNS_9AsyncWrapEPKcDpOT_.exit

_ZN4node5DebugIJEEEvPNS_9AsyncWrapEPKcDpOT_.exit: ; preds = %if.end.i, %if.then.i
  %receiving_messages_ = getelementptr inbounds %"class.node::worker::MessagePort", ptr %this1, i32 0, i32 2
  store i8 0, ptr %receiving_messages_, align 8
  ret void
}