; Function Attrs: mustprogress nounwind uwtable
define dso_local void @_ZN4node6worker11MessagePort4StopEv(ptr noundef nonnull align 8 dereferenceable(240) %this) local_unnamed_addr #6 align 2 {
entry:
  %provider_type_.i = getelementptr inbounds i8, ptr %this, i64 32
  %0 = load i32, ptr %provider_type_.i, align 8
  %realm_.i = getelementptr inbounds i8, ptr %this, i64 16
  %1 = load ptr, ptr %realm_.i, align 8
  %env_.i.i = getelementptr inbounds i8, ptr %1, i64 176
  %2 = load ptr, ptr %env_.i.i, align 8
  %enabled_debug_list_.i = getelementptr inbounds i8, ptr %2, i64 2240
  %idxprom.i = zext i32 %0 to i64
  %arrayidx.i = getelementptr inbounds [75 x i8], ptr %enabled_debug_list_.i, i64 0, i64 %idxprom.i
  %3 = load i8, ptr %arrayidx.i, align 1
  %4 = and i8 %3, 1
  %tobool.i.not = icmp eq i8 %4, 0
  br i1 %tobool.i.not, label %_ZN4node5DebugIJEEEvPNS_9AsyncWrapEPKcDpOT_.exit, label %if.end.i

if.end.i:                                         ; preds = %entry
  tail call void @_ZN4node27UnconditionalAsyncWrapDebugIJEEEvPNS_9AsyncWrapEPKcDpOT_(ptr noundef nonnull %this, ptr noundef nonnull @.str.45) #30
  br label %_ZN4node5DebugIJEEEvPNS_9AsyncWrapEPKcDpOT_.exit

_ZN4node5DebugIJEEEvPNS_9AsyncWrapEPKcDpOT_.exit: ; preds = %entry, %if.end.i
  %receiving_messages_ = getelementptr inbounds i8, ptr %this, i64 96
  store i8 0, ptr %receiving_messages_, align 8
  ret void
}